	.file	"f.c"
	.local	addCount
	.comm	addCount,4,4
	.local	subCount
	.comm	subCount,4,4
	.local	totalCount
	.comm	totalCount,4,4
	.text
	.globl	print
	.type	print, @function
print:
.LFB2:
	.cfi_startproc
	pushq	%rbp
	.cfi_def_cfa_offset 16
	.cfi_offset 6, -16
	movq	%rsp, %rbp
	.cfi_def_cfa_register 6
	leaq	-4144(%rsp), %rsp
	orq	$0, (%rsp)
	leaq	4128(%rsp), %rsp
	movq	%rdi, -8(%rbp)
	movq	-8(%rbp), %rax
	movq	%rax, %rdi
	call	puts@PLT
	nop
	leave
	.cfi_def_cfa 7, 8
	ret
	.cfi_endproc
.LFE2:
	.size	print, .-print
	.globl	add
	.type	add, @function
add:
.LFB3:
	.cfi_startproc
	pushq	%rbp
	.cfi_def_cfa_offset 16
	.cfi_offset 6, -16
	movq	%rsp, %rbp
	.cfi_def_cfa_register 6
	movl	%edi, -4(%rbp)
	movl	%esi, -8(%rbp)
	movl	addCount(%rip), %eax
	addl	$1, %eax
	movl	%eax, addCount(%rip)
	movl	-4(%rbp), %edx
	movl	-8(%rbp), %eax
	addl	%edx, %eax
	popq	%rbp
	.cfi_def_cfa 7, 8
	ret
	.cfi_endproc
.LFE3:
	.size	add, .-add
	.globl	sub
	.type	sub, @function
sub:
.LFB4:
	.cfi_startproc
	pushq	%rbp
	.cfi_def_cfa_offset 16
	.cfi_offset 6, -16
	movq	%rsp, %rbp
	.cfi_def_cfa_register 6
	movl	%edi, -4(%rbp)
	movl	%esi, -8(%rbp)
	movl	subCount(%rip), %eax
	addl	$1, %eax
	movl	%eax, subCount(%rip)
	movl	-4(%rbp), %eax
	subl	-8(%rbp), %eax
	popq	%rbp
	.cfi_def_cfa 7, 8
	ret
	.cfi_endproc
.LFE4:
	.size	sub, .-sub
	.globl	getAddCount
	.type	getAddCount, @function
getAddCount:
.LFB5:
	.cfi_startproc
	pushq	%rbp
	.cfi_def_cfa_offset 16
	.cfi_offset 6, -16
	movq	%rsp, %rbp
	.cfi_def_cfa_register 6
	movl	addCount(%rip), %eax
	popq	%rbp
	.cfi_def_cfa 7, 8
	ret
	.cfi_endproc
.LFE5:
	.size	getAddCount, .-getAddCount
	.globl	getSubCount
	.type	getSubCount, @function
getSubCount:
.LFB6:
	.cfi_startproc
	pushq	%rbp
	.cfi_def_cfa_offset 16
	.cfi_offset 6, -16
	movq	%rsp, %rbp
	.cfi_def_cfa_register 6
	movl	subCount(%rip), %eax
	popq	%rbp
	.cfi_def_cfa 7, 8
	ret
	.cfi_endproc
.LFE6:
	.size	getSubCount, .-getSubCount
	.globl	getTotalCount
	.type	getTotalCount, @function
getTotalCount:
.LFB7:
	.cfi_startproc
	pushq	%rbp
	.cfi_def_cfa_offset 16
	.cfi_offset 6, -16
	movq	%rsp, %rbp
	.cfi_def_cfa_register 6
	movl	addCount(%rip), %edx
	movl	subCount(%rip), %eax
	addl	%edx, %eax
	popq	%rbp
	.cfi_def_cfa 7, 8
	ret
	.cfi_endproc
.LFE7:
	.size	getTotalCount, .-getTotalCount
	.globl	exec
	.type	exec, @function
exec:
.LFB8:
	.cfi_startproc
	pushq	%rbp
	.cfi_def_cfa_offset 16
	.cfi_offset 6, -16
	movq	%rsp, %rbp
	.cfi_def_cfa_register 6
	leaq	-4144(%rsp), %rsp
	orq	$0, (%rsp)
	leaq	4128(%rsp), %rsp
	movq	%rdi, -8(%rbp)
	movl	%esi, -12(%rbp)
	movl	%edx, -16(%rbp)
	movl	-16(%rbp), %ecx
	movl	-12(%rbp), %eax
	movq	-8(%rbp), %rdx
	movl	%ecx, %esi
	movl	%eax, %edi
	movl	$0, %eax
	call	*%rdx
	leave
	.cfi_def_cfa 7, 8
	ret
	.cfi_endproc
.LFE8:
	.size	exec, .-exec
	.ident	"GCC: (GNU) 5.3.0"
	.section	.note.GNU-stack,"",@progbits
